target datalayout = "e-m:e-p270:32:32-p271:32:32-p272:64:64-i64:64-i128:128-f80:128-n8:16:32:64-S128"
target triple = "x86_64-pc-linux-gnu"

%"struct.grpc_core::(anonymous namespace)::Experiments" = type { [29 x i8] }

; Function Attrs: mustprogress uwtable
define noundef zeroext i1 @_ZN9grpc_core34IsExperimentEnabledInConfigurationEm(i64 noundef %0) #0 {
  %2 = alloca i64, align 8
  %3 = alloca %"struct.grpc_core::(anonymous namespace)::Experiments", align 1
  store i64 %0, ptr %2, align 8, !tbaa !7
  call void @llvm.lifetime.start.p0(i64 29, ptr %3) #17
  call void @_ZN9grpc_core12_GLOBAL__N_138LoadExperimentsFromConfigVariableInnerEv(ptr dead_on_unwind writable sret(%"struct.grpc_core::(anonymous namespace)::Experiments") align 1 %3)
  %4 = getelementptr inbounds nuw %"struct.grpc_core::(anonymous namespace)::Experiments", ptr %3, i32 0, i32 0
  %5 = load i64, ptr %2, align 8, !tbaa !7
  %6 = getelementptr inbounds nuw [29 x i8], ptr %4, i64 0, i64 %5
  %7 = load i8, ptr %6, align 1, !tbaa !18, !range !20, !noundef !21
  %8 = trunc i8 %7 to i1
  call void @llvm.lifetime.end.p0(i64 29, ptr %3) #17
  ret i1 %8
}