; Function Attrs: mustprogress uwtable
define noundef zeroext i1 @_ZN9grpc_core34IsExperimentEnabledInConfigurationEm(i64 noundef %0) local_unnamed_addr #0 {
  %2 = alloca %"struct.grpc_core::(anonymous namespace)::Experiments", align 1
  call void @llvm.lifetime.start.p0(i64 29, ptr nonnull %2) #26
  call fastcc void @_ZN9grpc_core12_GLOBAL__N_138LoadExperimentsFromConfigVariableInnerEv(ptr dead_on_unwind noalias writable align 1 %2)
  %3 = getelementptr inbounds nuw [29 x i8], ptr %2, i64 0, i64 %0
  %4 = load i8, ptr %3, align 1, !tbaa !119, !range !31, !noundef !32
  %5 = trunc nuw i8 %4 to i1
  call void @llvm.lifetime.end.p0(i64 29, ptr nonnull %2) #26
  ret i1 %5
}